; Function Attrs: nounwind uwtable
define hidden i32 @BN_dec2bn(ptr noundef captures(address_is_null) %0, ptr noundef readonly captures(address_is_null) %1) local_unnamed_addr #0 {
  %3 = icmp eq ptr %1, null
  br i1 %3, label %bn_x2bn.exit, label %4

4:                                                ; preds = %2
  %5 = load i8, ptr %1, align 1, !tbaa !14
  switch i8 %5, label %8 [
    i8 0, label %bn_x2bn.exit
    i8 45, label %6
  ]

6:                                                ; preds = %4
  %7 = getelementptr inbounds nuw i8, ptr %1, i64 1
  br label %8

8:                                                ; preds = %6, %4
  %.034.i = phi ptr [ %7, %6 ], [ %1, %4 ]
  %.032.i = phi i32 [ 1, %6 ], [ 0, %4 ]
  %9 = zext nneg i32 %.032.i to i64
  br label %10

10:                                               ; preds = %10, %8
  %indvars.iv.i = phi i64 [ %indvars.iv.next.i, %10 ], [ 0, %8 ]
  %11 = getelementptr inbounds nuw i8, ptr %.034.i, i64 %indvars.iv.i
  %12 = load i8, ptr %11, align 1, !tbaa !14
  %13 = add i8 %12, -48
  %isdigit = icmp ult i8 %13, 10
  %14 = add nuw nsw i64 %indvars.iv.i, %9
  %15 = icmp ne i64 %14, 2147483647
  %16 = select i1 %isdigit, i1 %15, i1 false
  %indvars.iv.next.i = add nuw nsw i64 %indvars.iv.i, 1
  br i1 %16, label %10, label %17, !llvm.loop !28

17:                                               ; preds = %10
  %18 = trunc nuw nsw i64 %indvars.iv.i to i32
  %19 = trunc nuw i64 %14 to i32
  %20 = icmp eq ptr %0, null
  br i1 %20, label %bn_x2bn.exit, label %21

21:                                               ; preds = %17
  %22 = load ptr, ptr %0, align 8, !tbaa !29
  %23 = icmp eq ptr %22, null
  br i1 %23, label %24, label %27

24:                                               ; preds = %21
  %25 = tail call ptr @BN_new() #9
  %26 = icmp eq ptr %25, null
  br i1 %26, label %bn_x2bn.exit, label %28

27:                                               ; preds = %21
  tail call void @BN_zero(ptr noundef nonnull %22) #9
  br label %28

28:                                               ; preds = %27, %24
  %.033.i = phi ptr [ %25, %24 ], [ %22, %27 ]
  %.not = icmp eq i64 %indvars.iv.i, 0
  br i1 %.not, label %decode_dec.exit, label %.lr.ph.preheader.i

.lr.ph.preheader.i:                               ; preds = %28
  %29 = urem i32 %18, 19
  %30 = icmp eq i32 %29, 0
  %31 = sub nuw nsw i32 19, %29
  %spec.store.select.i = select i1 %30, i32 0, i32 %31
  %wide.trip.count.i = and i64 %indvars.iv.i, 4294967295
  br label %.lr.ph.i

.lr.ph.i:                                         ; preds = %44, %.lr.ph.preheader.i
  %indvars.iv.i2 = phi i64 [ 0, %.lr.ph.preheader.i ], [ %indvars.iv.next.i3, %44 ]
  %.021.i = phi i64 [ 0, %.lr.ph.preheader.i ], [ %.1.i, %44 ]
  %.01320.i = phi i32 [ %spec.store.select.i, %.lr.ph.preheader.i ], [ %.114.i, %44 ]
  %32 = mul i64 %.021.i, 10
  %33 = getelementptr inbounds nuw i8, ptr %.034.i, i64 %indvars.iv.i2
  %34 = load i8, ptr %33, align 1, !tbaa !14
  %35 = sext i8 %34 to i64
  %36 = add i64 %32, -48
  %37 = add i64 %36, %35
  %38 = add nsw i32 %.01320.i, 1
  %39 = icmp eq i32 %38, 19
  br i1 %39, label %40, label %44

40:                                               ; preds = %.lr.ph.i
  %41 = tail call i32 @BN_mul_word(ptr noundef nonnull %.033.i, i64 noundef -8446744073709551616) #9
  %.not.i4 = icmp eq i32 %41, 0
  br i1 %.not.i4, label %49, label %42

42:                                               ; preds = %40
  %43 = tail call i32 @BN_add_word(ptr noundef nonnull %.033.i, i64 noundef %37) #9
  %.not18.i = icmp eq i32 %43, 0
  br i1 %.not18.i, label %49, label %44

44:                                               ; preds = %42, %.lr.ph.i
  %.114.i = phi i32 [ %38, %.lr.ph.i ], [ 0, %42 ]
  %.1.i = phi i64 [ %37, %.lr.ph.i ], [ 0, %42 ]
  %indvars.iv.next.i3 = add nuw nsw i64 %indvars.iv.i2, 1
  %exitcond.not.i = icmp eq i64 %indvars.iv.next.i3, %wide.trip.count.i
  br i1 %exitcond.not.i, label %decode_dec.exit, label %.lr.ph.i, !llvm.loop !37

decode_dec.exit:                                  ; preds = %44, %28
  tail call void @bn_correct_top(ptr noundef nonnull %.033.i) #9
  %45 = tail call i32 @BN_is_zero(ptr noundef nonnull %.033.i) #9
  %.not40.i = icmp eq i32 %45, 0
  br i1 %.not40.i, label %46, label %48

46:                                               ; preds = %decode_dec.exit
  %47 = getelementptr inbounds nuw i8, ptr %.033.i, i64 16
  store i32 %.032.i, ptr %47, align 8, !tbaa !13
  br label %48

48:                                               ; preds = %46, %decode_dec.exit
  store ptr %.033.i, ptr %0, align 8, !tbaa !29
  br label %bn_x2bn.exit

49:                                               ; preds = %40, %42
  %50 = load ptr, ptr %0, align 8, !tbaa !29
  %51 = icmp eq ptr %50, null
  br i1 %51, label %52, label %bn_x2bn.exit

52:                                               ; preds = %49
  tail call void @BN_free(ptr noundef nonnull %.033.i) #9
  br label %bn_x2bn.exit

bn_x2bn.exit:                                     ; preds = %2, %4, %17, %24, %48, %49, %52
  %.0.i = phi i32 [ %19, %48 ], [ 0, %4 ], [ 0, %2 ], [ %19, %17 ], [ 0, %24 ], [ 0, %52 ], [ 0, %49 ]
  ret i32 %.0.i
}